target datalayout = "e-m:e-p270:32:32-p271:32:32-p272:64:64-i64:64-i128:128-f80:128-n8:16:32:64-S128"
target triple = "x86_64-pc-linux-gnu"

%struct._object = type { %union.anon, ptr }
%union.anon = type { i64 }
%struct.ElementObject = type { %struct._object, ptr, ptr, ptr, ptr, ptr }
%struct.ElementObjectExtra = type { ptr, i64, i64, ptr, [4 x ptr] }

; Function Attrs: inlinehint nounwind uwtable
define internal ptr @_Py_TYPE(ptr noundef %0) #3 {
  %2 = alloca ptr, align 8
  store ptr %0, ptr %2, align 8, !tbaa !3
  %3 = load ptr, ptr %2, align 8, !tbaa !3
  %4 = getelementptr inbounds nuw %struct._object, ptr %3, i32 0, i32 1
  %5 = load ptr, ptr %4, align 8, !tbaa !52
  ret ptr %5
}

; Function Attrs: nounwind uwtable
define internal i32 @element_gc_traverse(ptr noundef %0, ptr noundef %1, ptr noundef %2) #0 {
  %4 = alloca i32, align 4
  %5 = alloca ptr, align 8
  %6 = alloca ptr, align 8
  %7 = alloca ptr, align 8
  %8 = alloca ptr, align 8
  %9 = alloca i32, align 4
  %10 = alloca i32, align 4
  %11 = alloca i32, align 4
  %12 = alloca i32, align 4
  %13 = alloca i32, align 4
  %14 = alloca i64, align 8
  %15 = alloca i32, align 4
  %16 = alloca i32, align 4
  store ptr %0, ptr %5, align 8, !tbaa !3
  store ptr %1, ptr %6, align 8, !tbaa !8
  store ptr %2, ptr %7, align 8, !tbaa !8
  call void @llvm.lifetime.start.p0(i64 8, ptr %8) #8
  %17 = load ptr, ptr %5, align 8, !tbaa !3
  store ptr %17, ptr %8, align 8, !tbaa !8
  br label %18

18:                                               ; preds = %3
  %19 = load ptr, ptr %8, align 8, !tbaa !8
  %20 = call ptr @_Py_TYPE(ptr noundef %19)
  %21 = icmp ne ptr %20, null
  br i1 %21, label %22, label %36

22:                                               ; preds = %18
  call void @llvm.lifetime.start.p0(i64 4, ptr %9) #8
  %23 = load ptr, ptr %6, align 8, !tbaa !8
  %24 = load ptr, ptr %8, align 8, !tbaa !8
  %25 = call ptr @_Py_TYPE(ptr noundef %24)
  %26 = load ptr, ptr %7, align 8, !tbaa !8
  %27 = call i32 %23(ptr noundef %25, ptr noundef %26)
  store i32 %27, ptr %9, align 4, !tbaa !13
  %28 = load i32, ptr %9, align 4, !tbaa !13
  %29 = icmp ne i32 %28, 0
  br i1 %29, label %30, label %32

30:                                               ; preds = %22
  %31 = load i32, ptr %9, align 4, !tbaa !13
  store i32 %31, ptr %4, align 4
  store i32 1, ptr %10, align 4
  br label %33

32:                                               ; preds = %22
  store i32 0, ptr %10, align 4
  br label %33

33:                                               ; preds = %32, %30
  call void @llvm.lifetime.end.p0(i64 4, ptr %9) #8
  %34 = load i32, ptr %10, align 4
  switch i32 %34, label %202 [
    i32 0, label %35
  ]

35:                                               ; preds = %33
  br label %36

36:                                               ; preds = %35, %18
  br label %37

37:                                               ; preds = %36
  br label %38

38:                                               ; preds = %37
  br label %39

39:                                               ; preds = %38
  %40 = load ptr, ptr %8, align 8, !tbaa !8
  %41 = getelementptr inbounds nuw %struct.ElementObject, ptr %40, i32 0, i32 1
  %42 = load ptr, ptr %41, align 8, !tbaa !44
  %43 = icmp ne ptr %42, null
  br i1 %43, label %44, label %59

44:                                               ; preds = %39
  call void @llvm.lifetime.start.p0(i64 4, ptr %11) #8
  %45 = load ptr, ptr %6, align 8, !tbaa !8
  %46 = load ptr, ptr %8, align 8, !tbaa !8
  %47 = getelementptr inbounds nuw %struct.ElementObject, ptr %46, i32 0, i32 1
  %48 = load ptr, ptr %47, align 8, !tbaa !44
  %49 = load ptr, ptr %7, align 8, !tbaa !8
  %50 = call i32 %45(ptr noundef %48, ptr noundef %49)
  store i32 %50, ptr %11, align 4, !tbaa !13
  %51 = load i32, ptr %11, align 4, !tbaa !13
  %52 = icmp ne i32 %51, 0
  br i1 %52, label %53, label %55

53:                                               ; preds = %44
  %54 = load i32, ptr %11, align 4, !tbaa !13
  store i32 %54, ptr %4, align 4
  store i32 1, ptr %10, align 4
  br label %56

55:                                               ; preds = %44
  store i32 0, ptr %10, align 4
  br label %56

56:                                               ; preds = %55, %53
  call void @llvm.lifetime.end.p0(i64 4, ptr %11) #8
  %57 = load i32, ptr %10, align 4
  switch i32 %57, label %202 [
    i32 0, label %58
  ]

58:                                               ; preds = %56
  br label %59

59:                                               ; preds = %58, %39
  br label %60

60:                                               ; preds = %59
  br label %61

61:                                               ; preds = %60
  br label %62

62:                                               ; preds = %61
  %63 = load ptr, ptr %8, align 8, !tbaa !8
  %64 = getelementptr inbounds nuw %struct.ElementObject, ptr %63, i32 0, i32 2
  %65 = load ptr, ptr %64, align 8, !tbaa !45
  %66 = ptrtoint ptr %65 to i64
  %67 = and i64 %66, -2
  %68 = inttoptr i64 %67 to ptr
  %69 = icmp ne ptr %68, null
  br i1 %69, label %70, label %88

70:                                               ; preds = %62
  call void @llvm.lifetime.start.p0(i64 4, ptr %12) #8
  %71 = load ptr, ptr %6, align 8, !tbaa !8
  %72 = load ptr, ptr %8, align 8, !tbaa !8
  %73 = getelementptr inbounds nuw %struct.ElementObject, ptr %72, i32 0, i32 2
  %74 = load ptr, ptr %73, align 8, !tbaa !45
  %75 = ptrtoint ptr %74 to i64
  %76 = and i64 %75, -2
  %77 = inttoptr i64 %76 to ptr
  %78 = load ptr, ptr %7, align 8, !tbaa !8
  %79 = call i32 %71(ptr noundef %77, ptr noundef %78)
  store i32 %79, ptr %12, align 4, !tbaa !13
  %80 = load i32, ptr %12, align 4, !tbaa !13
  %81 = icmp ne i32 %80, 0
  br i1 %81, label %82, label %84

82:                                               ; preds = %70
  %83 = load i32, ptr %12, align 4, !tbaa !13
  store i32 %83, ptr %4, align 4
  store i32 1, ptr %10, align 4
  br label %85

84:                                               ; preds = %70
  store i32 0, ptr %10, align 4
  br label %85

85:                                               ; preds = %84, %82
  call void @llvm.lifetime.end.p0(i64 4, ptr %12) #8
  %86 = load i32, ptr %10, align 4
  switch i32 %86, label %202 [
    i32 0, label %87
  ]

87:                                               ; preds = %85
  br label %88

88:                                               ; preds = %87, %62
  br label %89

89:                                               ; preds = %88
  br label %90

90:                                               ; preds = %89
  br label %91

91:                                               ; preds = %90
  %92 = load ptr, ptr %8, align 8, !tbaa !8
  %93 = getelementptr inbounds nuw %struct.ElementObject, ptr %92, i32 0, i32 3
  %94 = load ptr, ptr %93, align 8, !tbaa !46
  %95 = ptrtoint ptr %94 to i64
  %96 = and i64 %95, -2
  %97 = inttoptr i64 %96 to ptr
  %98 = icmp ne ptr %97, null
  br i1 %98, label %99, label %117

99:                                               ; preds = %91
  call void @llvm.lifetime.start.p0(i64 4, ptr %13) #8
  %100 = load ptr, ptr %6, align 8, !tbaa !8
  %101 = load ptr, ptr %8, align 8, !tbaa !8
  %102 = getelementptr inbounds nuw %struct.ElementObject, ptr %101, i32 0, i32 3
  %103 = load ptr, ptr %102, align 8, !tbaa !46
  %104 = ptrtoint ptr %103 to i64
  %105 = and i64 %104, -2
  %106 = inttoptr i64 %105 to ptr
  %107 = load ptr, ptr %7, align 8, !tbaa !8
  %108 = call i32 %100(ptr noundef %106, ptr noundef %107)
  store i32 %108, ptr %13, align 4, !tbaa !13
  %109 = load i32, ptr %13, align 4, !tbaa !13
  %110 = icmp ne i32 %109, 0
  br i1 %110, label %111, label %113

111:                                              ; preds = %99
  %112 = load i32, ptr %13, align 4, !tbaa !13
  store i32 %112, ptr %4, align 4
  store i32 1, ptr %10, align 4
  br label %114

113:                                              ; preds = %99
  store i32 0, ptr %10, align 4
  br label %114

114:                                              ; preds = %113, %111
  call void @llvm.lifetime.end.p0(i64 4, ptr %13) #8
  %115 = load i32, ptr %10, align 4
  switch i32 %115, label %202 [
    i32 0, label %116
  ]

116:                                              ; preds = %114
  br label %117

117:                                              ; preds = %116, %91
  br label %118

118:                                              ; preds = %117
  br label %119

119:                                              ; preds = %118
  %120 = load ptr, ptr %8, align 8, !tbaa !8
  %121 = getelementptr inbounds nuw %struct.ElementObject, ptr %120, i32 0, i32 4
  %122 = load ptr, ptr %121, align 8, !tbaa !42
  %123 = icmp ne ptr %122, null
  br i1 %123, label %124, label %201

124:                                              ; preds = %119
  call void @llvm.lifetime.start.p0(i64 8, ptr %14) #8
  br label %125

125:                                              ; preds = %124
  %126 = load ptr, ptr %8, align 8, !tbaa !8
  %127 = getelementptr inbounds nuw %struct.ElementObject, ptr %126, i32 0, i32 4
  %128 = load ptr, ptr %127, align 8, !tbaa !42
  %129 = getelementptr inbounds nuw %struct.ElementObjectExtra, ptr %128, i32 0, i32 0
  %130 = load ptr, ptr %129, align 8, !tbaa !53
  %131 = icmp ne ptr %130, null
  br i1 %131, label %132, label %149

132:                                              ; preds = %125
  call void @llvm.lifetime.start.p0(i64 4, ptr %15) #8
  %133 = load ptr, ptr %6, align 8, !tbaa !8
  %134 = load ptr, ptr %8, align 8, !tbaa !8
  %135 = getelementptr inbounds nuw %struct.ElementObject, ptr %134, i32 0, i32 4
  %136 = load ptr, ptr %135, align 8, !tbaa !42
  %137 = getelementptr inbounds nuw %struct.ElementObjectExtra, ptr %136, i32 0, i32 0
  %138 = load ptr, ptr %137, align 8, !tbaa !53
  %139 = load ptr, ptr %7, align 8, !tbaa !8
  %140 = call i32 %133(ptr noundef %138, ptr noundef %139)
  store i32 %140, ptr %15, align 4, !tbaa !13
  %141 = load i32, ptr %15, align 4, !tbaa !13
  %142 = icmp ne i32 %141, 0
  br i1 %142, label %143, label %145

143:                                              ; preds = %132
  %144 = load i32, ptr %15, align 4, !tbaa !13
  store i32 %144, ptr %4, align 4
  store i32 1, ptr %10, align 4
  br label %146

145:                                              ; preds = %132
  store i32 0, ptr %10, align 4
  br label %146

146:                                              ; preds = %145, %143
  call void @llvm.lifetime.end.p0(i64 4, ptr %15) #8
  %147 = load i32, ptr %10, align 4
  switch i32 %147, label %198 [
    i32 0, label %148
  ]

148:                                              ; preds = %146
  br label %149

149:                                              ; preds = %148, %125
  br label %150

150:                                              ; preds = %149
  br label %151

151:                                              ; preds = %150
  store i64 0, ptr %14, align 8, !tbaa !30
  br label %152

152:                                              ; preds = %194, %151
  %153 = load i64, ptr %14, align 8, !tbaa !30
  %154 = load ptr, ptr %8, align 8, !tbaa !8
  %155 = getelementptr inbounds nuw %struct.ElementObject, ptr %154, i32 0, i32 4
  %156 = load ptr, ptr %155, align 8, !tbaa !42
  %157 = getelementptr inbounds nuw %struct.ElementObjectExtra, ptr %156, i32 0, i32 1
  %158 = load i64, ptr %157, align 8, !tbaa !50
  %159 = icmp slt i64 %153, %158
  br i1 %159, label %160, label %197

160:                                              ; preds = %152
  br label %161

161:                                              ; preds = %160
  %162 = load ptr, ptr %8, align 8, !tbaa !8
  %163 = getelementptr inbounds nuw %struct.ElementObject, ptr %162, i32 0, i32 4
  %164 = load ptr, ptr %163, align 8, !tbaa !42
  %165 = getelementptr inbounds nuw %struct.ElementObjectExtra, ptr %164, i32 0, i32 3
  %166 = load ptr, ptr %165, align 8, !tbaa !48
  %167 = load i64, ptr %14, align 8, !tbaa !30
  %168 = getelementptr ptr, ptr %166, i64 %167
  %169 = load ptr, ptr %168, align 8, !tbaa !3
  %170 = icmp ne ptr %169, null
  br i1 %170, label %171, label %191

171:                                              ; preds = %161
  call void @llvm.lifetime.start.p0(i64 4, ptr %16) #8
  %172 = load ptr, ptr %6, align 8, !tbaa !8
  %173 = load ptr, ptr %8, align 8, !tbaa !8
  %174 = getelementptr inbounds nuw %struct.ElementObject, ptr %173, i32 0, i32 4
  %175 = load ptr, ptr %174, align 8, !tbaa !42
  %176 = getelementptr inbounds nuw %struct.ElementObjectExtra, ptr %175, i32 0, i32 3
  %177 = load ptr, ptr %176, align 8, !tbaa !48
  %178 = load i64, ptr %14, align 8, !tbaa !30
  %179 = getelementptr ptr, ptr %177, i64 %178
  %180 = load ptr, ptr %179, align 8, !tbaa !3
  %181 = load ptr, ptr %7, align 8, !tbaa !8
  %182 = call i32 %172(ptr noundef %180, ptr noundef %181)
  store i32 %182, ptr %16, align 4, !tbaa !13
  %183 = load i32, ptr %16, align 4, !tbaa !13
  %184 = icmp ne i32 %183, 0
  br i1 %184, label %185, label %187

185:                                              ; preds = %171
  %186 = load i32, ptr %16, align 4, !tbaa !13
  store i32 %186, ptr %4, align 4
  store i32 1, ptr %10, align 4
  br label %188

187:                                              ; preds = %171
  store i32 0, ptr %10, align 4
  br label %188

188:                                              ; preds = %187, %185
  call void @llvm.lifetime.end.p0(i64 4, ptr %16) #8
  %189 = load i32, ptr %10, align 4
  switch i32 %189, label %198 [
    i32 0, label %190
  ]

190:                                              ; preds = %188
  br label %191

191:                                              ; preds = %190, %161
  br label %192

192:                                              ; preds = %191
  br label %193

193:                                              ; preds = %192
  br label %194

194:                                              ; preds = %193
  %195 = load i64, ptr %14, align 8, !tbaa !30
  %196 = add i64 %195, 1
  store i64 %196, ptr %14, align 8, !tbaa !30
  br label %152, !llvm.loop !127

197:                                              ; preds = %152
  store i32 0, ptr %10, align 4
  br label %198

198:                                              ; preds = %197, %188, %146
  call void @llvm.lifetime.end.p0(i64 8, ptr %14) #8
  %199 = load i32, ptr %10, align 4
  switch i32 %199, label %202 [
    i32 0, label %200
  ]

200:                                              ; preds = %198
  br label %201

201:                                              ; preds = %200, %119
  store i32 0, ptr %4, align 4
  store i32 1, ptr %10, align 4
  br label %202

202:                                              ; preds = %201, %198, %114, %85, %56, %33
  call void @llvm.lifetime.end.p0(i64 8, ptr %8) #8
  %203 = load i32, ptr %4, align 4
  ret i32 %203
}