; Function Attrs: nounwind uwtable
define internal i32 @element_gc_traverse(ptr noundef readonly captures(none) %0, ptr noundef readonly captures(none) %1, ptr noundef %2) #0 {
  %4 = getelementptr i8, ptr %0, i64 8
  %.val86 = load ptr, ptr %4, align 8, !tbaa !25
  %.not = icmp eq ptr %.val86, null
  br i1 %.not, label %7, label %5

5:                                                ; preds = %3
  %6 = tail call i32 %1(ptr noundef nonnull %.val86, ptr noundef %2) #12
  %.not74 = icmp eq i32 %6, 0
  br i1 %.not74, label %7, label %.thread

7:                                                ; preds = %3, %5
  %8 = getelementptr inbounds nuw i8, ptr %0, i64 16
  %9 = load ptr, ptr %8, align 8, !tbaa !44
  %.not75 = icmp eq ptr %9, null
  br i1 %.not75, label %12, label %10

10:                                               ; preds = %7
  %11 = tail call i32 %1(ptr noundef nonnull %9, ptr noundef %2) #12
  %.not76 = icmp eq i32 %11, 0
  br i1 %.not76, label %12, label %.thread

12:                                               ; preds = %7, %10
  %13 = getelementptr inbounds nuw i8, ptr %0, i64 24
  %14 = load ptr, ptr %13, align 8, !tbaa !45
  %15 = ptrtoint ptr %14 to i64
  %16 = and i64 %15, -2
  %.not77 = icmp eq i64 %16, 0
  br i1 %.not77, label %20, label %17

17:                                               ; preds = %12
  %18 = inttoptr i64 %16 to ptr
  %19 = tail call i32 %1(ptr noundef nonnull %18, ptr noundef %2) #12
  %.not78 = icmp eq i32 %19, 0
  br i1 %.not78, label %20, label %.thread

20:                                               ; preds = %12, %17
  %21 = getelementptr inbounds nuw i8, ptr %0, i64 32
  %22 = load ptr, ptr %21, align 8, !tbaa !46
  %23 = ptrtoint ptr %22 to i64
  %24 = and i64 %23, -2
  %.not79 = icmp eq i64 %24, 0
  br i1 %.not79, label %28, label %25

25:                                               ; preds = %20
  %26 = inttoptr i64 %24 to ptr
  %27 = tail call i32 %1(ptr noundef nonnull %26, ptr noundef %2) #12
  %.not80 = icmp eq i32 %27, 0
  br i1 %.not80, label %28, label %.thread

28:                                               ; preds = %25, %20
  %29 = getelementptr inbounds nuw i8, ptr %0, i64 40
  %30 = load ptr, ptr %29, align 8, !tbaa !37
  %.not81 = icmp eq ptr %30, null
  br i1 %.not81, label %.thread, label %31

31:                                               ; preds = %28
  %32 = load ptr, ptr %30, align 8, !tbaa !52
  %.not82 = icmp eq ptr %32, null
  br i1 %.not82, label %35, label %33

33:                                               ; preds = %31
  %34 = tail call i32 %1(ptr noundef nonnull %32, ptr noundef %2) #12
  %.not83 = icmp eq i32 %34, 0
  br i1 %.not83, label %._crit_edge, label %.thread

._crit_edge:                                      ; preds = %33
  %.pre = load ptr, ptr %29, align 8, !tbaa !37
  br label %35

35:                                               ; preds = %._crit_edge, %31
  %36 = phi ptr [ %.pre, %._crit_edge ], [ %30, %31 ]
  %37 = getelementptr inbounds nuw i8, ptr %36, i64 8
  %38 = load i64, ptr %37, align 8, !tbaa !42
  %39 = icmp sgt i64 %38, 0
  br i1 %39, label %.lr.ph, label %.thread

.lr.ph:                                           ; preds = %35, %47
  %40 = phi ptr [ %48, %47 ], [ %36, %35 ]
  %.06389 = phi i64 [ %49, %47 ], [ 0, %35 ]
  %41 = getelementptr inbounds nuw i8, ptr %40, i64 24
  %42 = load ptr, ptr %41, align 8, !tbaa !39
  %43 = getelementptr ptr, ptr %42, i64 %.06389
  %44 = load ptr, ptr %43, align 8, !tbaa !20
  %.not84 = icmp eq ptr %44, null
  br i1 %.not84, label %47, label %45

45:                                               ; preds = %.lr.ph
  %46 = tail call i32 %1(ptr noundef nonnull %44, ptr noundef %2) #12
  %.not85 = icmp eq i32 %46, 0
  br i1 %.not85, label %._crit_edge92, label %.thread

._crit_edge92:                                    ; preds = %45
  %.pre93 = load ptr, ptr %29, align 8, !tbaa !37
  br label %47

47:                                               ; preds = %._crit_edge92, %.lr.ph
  %48 = phi ptr [ %.pre93, %._crit_edge92 ], [ %40, %.lr.ph ]
  %49 = add nuw nsw i64 %.06389, 1
  %50 = getelementptr inbounds nuw i8, ptr %48, i64 8
  %51 = load i64, ptr %50, align 8, !tbaa !42
  %52 = icmp slt i64 %49, %51
  br i1 %52, label %.lr.ph, label %.thread, !llvm.loop !120

.thread:                                          ; preds = %47, %45, %35, %33, %28, %5, %10, %17, %25
  %.1 = phi i32 [ %27, %25 ], [ %19, %17 ], [ %11, %10 ], [ %6, %5 ], [ 0, %28 ], [ %34, %33 ], [ 0, %35 ], [ 0, %47 ], [ %46, %45 ]
  ret i32 %.1
}